target datalayout = "e-m:e-p270:32:32-p271:32:32-p272:64:64-i64:64-i128:128-f80:128-n8:16:32:64-S128"
target triple = "x86_64-pc-linux-gnu"

%struct.lua_TValue = type { %union.Value, [1 x i32], i32 }
%union.Value = type { ptr }
%struct.TString = type { i8, i8, i8, i16, ptr, i32, i32, [1 x i8] }

; Function Attrs: mustprogress uwtable
define internal noundef i32 @_ZL12luauF_rawlenP9lua_StateP10lua_TValueS2_iS2_i(ptr noundef %0, ptr noundef %1, ptr noundef %2, i32 noundef %3, ptr noundef %4, i32 noundef %5) #3 {
  %7 = alloca i32, align 4
  %8 = alloca ptr, align 8
  %9 = alloca ptr, align 8
  %10 = alloca ptr, align 8
  %11 = alloca i32, align 4
  %12 = alloca ptr, align 8
  %13 = alloca i32, align 4
  %14 = alloca ptr, align 8
  %15 = alloca ptr, align 8
  %16 = alloca ptr, align 8
  %17 = alloca ptr, align 8
  store ptr %0, ptr %8, align 8, !tbaa !4
  store ptr %1, ptr %9, align 8, !tbaa !9
  store ptr %2, ptr %10, align 8, !tbaa !9
  store i32 %3, ptr %11, align 4, !tbaa !11
  store ptr %4, ptr %12, align 8, !tbaa !9
  store i32 %5, ptr %13, align 4, !tbaa !11
  %18 = load i32, ptr %13, align 4, !tbaa !11
  %19 = icmp sge i32 %18, 1
  br i1 %19, label %20, label %60

20:                                               ; preds = %6
  %21 = load i32, ptr %11, align 4, !tbaa !11
  %22 = icmp sle i32 %21, 1
  br i1 %22, label %23, label %60

23:                                               ; preds = %20
  %24 = load ptr, ptr %10, align 8, !tbaa !9
  %25 = getelementptr inbounds nuw %struct.lua_TValue, ptr %24, i32 0, i32 2
  %26 = load i32, ptr %25, align 4, !tbaa !13
  %27 = icmp eq i32 %26, 6
  br i1 %27, label %28, label %40

28:                                               ; preds = %23
  call void @llvm.lifetime.start.p0(i64 8, ptr %14) #17
  %29 = load ptr, ptr %10, align 8, !tbaa !9
  %30 = getelementptr inbounds nuw %struct.lua_TValue, ptr %29, i32 0, i32 0
  %31 = load ptr, ptr %30, align 8, !tbaa !15
  store ptr %31, ptr %14, align 8, !tbaa !57
  call void @llvm.lifetime.start.p0(i64 8, ptr %15) #17
  %32 = load ptr, ptr %9, align 8, !tbaa !9
  store ptr %32, ptr %15, align 8, !tbaa !9
  %33 = load ptr, ptr %14, align 8, !tbaa !57
  %34 = call noundef i32 @_Z9luaH_getnP8LuaTable(ptr noundef %33)
  %35 = sitofp i32 %34 to double
  %36 = load ptr, ptr %15, align 8, !tbaa !9
  %37 = getelementptr inbounds nuw %struct.lua_TValue, ptr %36, i32 0, i32 0
  store double %35, ptr %37, align 8, !tbaa !15
  %38 = load ptr, ptr %15, align 8, !tbaa !9
  %39 = getelementptr inbounds nuw %struct.lua_TValue, ptr %38, i32 0, i32 2
  store i32 3, ptr %39, align 4, !tbaa !13
  call void @llvm.lifetime.end.p0(i64 8, ptr %15) #17
  store i32 1, ptr %7, align 4
  call void @llvm.lifetime.end.p0(i64 8, ptr %14) #17
  br label %61

40:                                               ; preds = %23
  %41 = load ptr, ptr %10, align 8, !tbaa !9
  %42 = getelementptr inbounds nuw %struct.lua_TValue, ptr %41, i32 0, i32 2
  %43 = load i32, ptr %42, align 4, !tbaa !13
  %44 = icmp eq i32 %43, 5
  br i1 %44, label %45, label %58

45:                                               ; preds = %40
  call void @llvm.lifetime.start.p0(i64 8, ptr %16) #17
  %46 = load ptr, ptr %10, align 8, !tbaa !9
  %47 = getelementptr inbounds nuw %struct.lua_TValue, ptr %46, i32 0, i32 0
  %48 = load ptr, ptr %47, align 8, !tbaa !15
  store ptr %48, ptr %16, align 8, !tbaa !37
  call void @llvm.lifetime.start.p0(i64 8, ptr %17) #17
  %49 = load ptr, ptr %9, align 8, !tbaa !9
  store ptr %49, ptr %17, align 8, !tbaa !9
  %50 = load ptr, ptr %16, align 8, !tbaa !37
  %51 = getelementptr inbounds nuw %struct.TString, ptr %50, i32 0, i32 6
  %52 = load i32, ptr %51, align 4, !tbaa !38
  %53 = uitofp i32 %52 to double
  %54 = load ptr, ptr %17, align 8, !tbaa !9
  %55 = getelementptr inbounds nuw %struct.lua_TValue, ptr %54, i32 0, i32 0
  store double %53, ptr %55, align 8, !tbaa !15
  %56 = load ptr, ptr %17, align 8, !tbaa !9
  %57 = getelementptr inbounds nuw %struct.lua_TValue, ptr %56, i32 0, i32 2
  store i32 3, ptr %57, align 4, !tbaa !13
  call void @llvm.lifetime.end.p0(i64 8, ptr %17) #17
  store i32 1, ptr %7, align 4
  call void @llvm.lifetime.end.p0(i64 8, ptr %16) #17
  br label %61

58:                                               ; preds = %40
  br label %59

59:                                               ; preds = %58
  br label %60

60:                                               ; preds = %59, %20, %6
  store i32 -1, ptr %7, align 4
  br label %61

61:                                               ; preds = %60, %45, %28
  %62 = load i32, ptr %7, align 4
  ret i32 %62
}