; Function Attrs: mustprogress uwtable
define internal noundef range(i32 -1, 2) i32 @_ZL12luauF_rawlenP9lua_StateP10lua_TValueS2_iS2_i(ptr readnone captures(none) %0, ptr noundef writeonly captures(none) %1, ptr noundef readonly captures(none) %2, i32 noundef %3, ptr readnone captures(none) %4, i32 noundef %5) #8 {
  %7 = icmp sgt i32 %5, 0
  %8 = icmp slt i32 %3, 2
  %or.cond = and i1 %8, %7
  br i1 %or.cond, label %9, label %22

9:                                                ; preds = %6
  %10 = getelementptr inbounds nuw i8, ptr %2, i64 12
  %11 = load i32, ptr %10, align 4, !tbaa !4
  switch i32 %11, label %22 [
    i32 6, label %12
    i32 5, label %16
  ]

12:                                               ; preds = %9
  %13 = load ptr, ptr %2, align 8, !tbaa !9
  %14 = tail call noundef i32 @_Z9luaH_getnP8LuaTable(ptr noundef %13)
  %15 = sitofp i32 %14 to double
  br label %.sink.split

16:                                               ; preds = %9
  %17 = load ptr, ptr %2, align 8, !tbaa !9
  %18 = getelementptr inbounds nuw i8, ptr %17, i64 20
  %19 = load i32, ptr %18, align 4, !tbaa !33
  %20 = uitofp i32 %19 to double
  br label %.sink.split

.sink.split:                                      ; preds = %12, %16
  %.sink = phi double [ %20, %16 ], [ %15, %12 ]
  store double %.sink, ptr %1, align 8, !tbaa !9
  %21 = getelementptr inbounds nuw i8, ptr %1, i64 12
  store i32 3, ptr %21, align 4, !tbaa !4
  br label %22

22:                                               ; preds = %.sink.split, %6, %9
  %.0 = phi i32 [ -1, %9 ], [ -1, %6 ], [ 1, %.sink.split ]
  ret i32 %.0
}